target datalayout = "e-m:e-p270:32:32-p271:32:32-p272:64:64-i64:64-i128:128-f80:128-n8:16:32:64-S128"
target triple = "x86_64-pc-linux-gnu"

; Function Attrs: nounwind uwtable
define dso_local ptr @str_unescape(ptr noundef %0) #0 {
  %2 = alloca ptr, align 8
  %3 = alloca ptr, align 8
  %4 = alloca i8, align 1
  %5 = alloca i64, align 8
  store ptr %0, ptr %3, align 8
  store i64 0, ptr %5, align 8
  br label %6

6:                                                ; preds = %27, %1
  %7 = load ptr, ptr %3, align 8
  %8 = getelementptr inbounds i8, ptr %7, i32 1
  store ptr %8, ptr %3, align 8
  %9 = getelementptr inbounds i8, ptr %7, i64 0
  %10 = load i8, ptr %9, align 1
  store i8 %10, ptr %4, align 1
  %11 = sext i8 %10 to i32
  %12 = icmp ne i32 %11, 34
  br i1 %12, label %13, label %33

13:                                               ; preds = %6
  %14 = load i8, ptr %4, align 1
  %15 = sext i8 %14 to i32
  %16 = icmp eq i32 %15, 0
  br i1 %16, label %17, label %18

17:                                               ; preds = %13
  store ptr null, ptr %2, align 8
  br label %38

18:                                               ; preds = %13
  %19 = load i8, ptr %4, align 1
  %20 = sext i8 %19 to i32
  %21 = icmp eq i32 %20, 92
  br i1 %21, label %22, label %27

22:                                               ; preds = %18
  %23 = load ptr, ptr %3, align 8
  %24 = getelementptr inbounds i8, ptr %23, i32 1
  store ptr %24, ptr %3, align 8
  %25 = getelementptr inbounds i8, ptr %23, i64 0
  %26 = load i8, ptr %25, align 1
  store i8 %26, ptr %4, align 1
  br label %27

27:                                               ; preds = %22, %18
  %28 = load i8, ptr %4, align 1
  %29 = load ptr, ptr %3, align 8
  %30 = load i64, ptr %5, align 8
  %31 = add i64 %30, 1
  store i64 %31, ptr %5, align 8
  %32 = getelementptr inbounds i8, ptr %29, i64 %30
  store i8 %28, ptr %32, align 1
  br label %6, !llvm.loop !11

33:                                               ; preds = %6
  %34 = load ptr, ptr %3, align 8
  %35 = load i64, ptr %5, align 8
  %36 = getelementptr inbounds i8, ptr %34, i64 %35
  store i8 0, ptr %36, align 1
  %37 = load ptr, ptr %3, align 8
  store ptr %37, ptr %2, align 8
  br label %38

38:                                               ; preds = %33, %17
  %39 = load ptr, ptr %2, align 8
  ret ptr %39
}