; Function Attrs: nofree norecurse nosync nounwind memory(readwrite, inaccessiblemem: none) uwtable
define dso_local ptr @str_unescape(ptr noundef %0) local_unnamed_addr #3 {
  br label %2

2:                                                ; preds = %8, %1
  %.011 = phi ptr [ %0, %1 ], [ %.1, %8 ]
  %.0 = phi i64 [ 0, %1 ], [ %9, %8 ]
  %3 = getelementptr inbounds i8, ptr %.011, i64 1
  %4 = load i8, ptr %.011, align 1
  switch i8 %4, label %8 [
    i8 34, label %11
    i8 0, label %.loopexit
    i8 92, label %5
  ]

5:                                                ; preds = %2
  %6 = getelementptr inbounds i8, ptr %.011, i64 2
  %7 = load i8, ptr %3, align 1
  br label %8

8:                                                ; preds = %2, %5
  %.1 = phi ptr [ %6, %5 ], [ %3, %2 ]
  %.010 = phi i8 [ %7, %5 ], [ %4, %2 ]
  %9 = add i64 %.0, 1
  %10 = getelementptr inbounds i8, ptr %.1, i64 %.0
  store i8 %.010, ptr %10, align 1
  br label %2, !llvm.loop !11

11:                                               ; preds = %2
  %12 = getelementptr inbounds i8, ptr %3, i64 %.0
  store i8 0, ptr %12, align 1
  br label %.loopexit

.loopexit:                                        ; preds = %2, %11
  %.012 = phi ptr [ %3, %11 ], [ null, %2 ]
  ret ptr %.012
}